; Function Attrs: nounwind uwtable
define internal i32 @dh_gencb(i32 noundef %0, i32 noundef %1, ptr noundef %2) #0 {
  %4 = alloca i32, align 4
  %5 = alloca i32, align 4
  %6 = alloca [3 x %struct.ossl_param_st], align 16
  %7 = alloca %struct.ossl_param_st, align 8
  store i32 %0, ptr %4, align 4, !tbaa !44
  store i32 %1, ptr %5, align 4, !tbaa !44
  %8 = tail call ptr @BN_GENCB_get_arg(ptr noundef %2) #8
  call void @llvm.lifetime.start.p0(i64 120, ptr nonnull %6) #8
  call void @OSSL_PARAM_construct_int(ptr dead_on_unwind nonnull writable sret(%struct.ossl_param_st) align 8 %6, ptr noundef nonnull @.str.15, ptr noundef nonnull %4) #8
  %9 = getelementptr inbounds nuw i8, ptr %6, i64 40
  call void @llvm.lifetime.start.p0(i64 40, ptr nonnull %7) #8
  call void @OSSL_PARAM_construct_int(ptr dead_on_unwind nonnull writable sret(%struct.ossl_param_st) align 8 %7, ptr noundef nonnull @.str.16, ptr noundef nonnull %5) #8
  %10 = getelementptr inbounds nuw i8, ptr %6, i64 80
  call void @llvm.memset.p0.i64(ptr noundef nonnull align 16 dereferenceable(40) %10, i8 0, i64 40, i1 false)
  call void @llvm.memcpy.p0.p0.i64(ptr noundef nonnull align 8 dereferenceable(40) %9, ptr noundef nonnull align 8 dereferenceable(40) %7, i64 40, i1 false), !tbaa.struct !48
  call void @llvm.lifetime.end.p0(i64 40, ptr nonnull %7) #8
  %11 = getelementptr inbounds nuw i8, ptr %8, i64 96
  %12 = load ptr, ptr %11, align 8, !tbaa !29
  %13 = getelementptr inbounds nuw i8, ptr %8, i64 104
  %14 = load ptr, ptr %13, align 8, !tbaa !30
  %15 = call i32 %12(ptr noundef nonnull %6, ptr noundef %14) #8
  call void @llvm.lifetime.end.p0(i64 120, ptr nonnull %6) #8
  ret i32 %15
}